target datalayout = "e-m:e-p270:32:32-p271:32:32-p272:64:64-i64:64-i128:128-f80:128-n8:16:32:64-S128"
target triple = "x86_64-pc-linux-gnu"

%struct.H5R_ref_priv_t = type { %union.anon, i64, i32, i8, i8, i8 }
%union.anon = type { %struct.H5R_ref_priv_reg_t }
%struct.H5R_ref_priv_reg_t = type { %struct.H5R_ref_priv_obj_t, ptr }
%struct.H5R_ref_priv_obj_t = type { %struct.H5O_token_t, ptr }
%struct.H5O_token_t = type { [16 x i8] }
%struct.H5R_ref_priv_attr_t = type { %struct.H5R_ref_priv_obj_t, ptr }

@H5R_init_g = global i8 0, align 1
@H5_libterm_g = external global i8, align 1

; Function Attrs: nounwind uwtable
define i64 @H5R__get_attr_name(ptr noundef %0, ptr noundef %1, i64 noundef %2) #0 {
  %4 = alloca ptr, align 8
  %5 = alloca ptr, align 8
  %6 = alloca i64, align 8
  %7 = alloca i64, align 8
  %8 = alloca i64, align 8
  %9 = alloca i64, align 8
  store ptr %0, ptr %4, align 8, !tbaa !14
  store ptr %1, ptr %5, align 8, !tbaa !24
  store i64 %2, ptr %6, align 8, !tbaa !12
  call void @llvm.lifetime.start.p0(i64 8, ptr %7) #9
  store i64 -1, ptr %7, align 8, !tbaa !12
  call void @llvm.lifetime.start.p0(i64 8, ptr %8) #9
  %10 = load i8, ptr @H5R_init_g, align 1, !tbaa !3, !range !7, !noundef !8
  %11 = trunc i8 %10 to i1
  br i1 %11, label %16, label %12

12:                                               ; preds = %3
  %13 = load i8, ptr @H5_libterm_g, align 1, !tbaa !3, !range !7, !noundef !8
  %14 = trunc i8 %13 to i1
  %15 = xor i1 %14, true
  br label %16

16:                                               ; preds = %12, %3
  %17 = phi i1 [ true, %3 ], [ %15, %12 ]
  %18 = xor i1 %17, true
  %19 = xor i1 %18, true
  %20 = zext i1 %19 to i32
  %21 = sext i32 %20 to i64
  %22 = call i64 @llvm.expect.i64(i64 %21, i64 1)
  %23 = icmp ne i64 %22, 0
  br i1 %23, label %24, label %55

24:                                               ; preds = %16
  %25 = load ptr, ptr %4, align 8, !tbaa !14
  %26 = getelementptr inbounds nuw %struct.H5R_ref_priv_t, ptr %25, i32 0, i32 0
  %27 = getelementptr inbounds nuw %struct.H5R_ref_priv_attr_t, ptr %26, i32 0, i32 1
  %28 = load ptr, ptr %27, align 8, !tbaa !18
  %29 = call i64 @strlen(ptr noundef %28) #10
  store i64 %29, ptr %8, align 8, !tbaa !12
  %30 = load ptr, ptr %5, align 8, !tbaa !24
  %31 = icmp ne ptr %30, null
  br i1 %31, label %32, label %53

32:                                               ; preds = %24
  call void @llvm.lifetime.start.p0(i64 8, ptr %9) #9
  %33 = load i64, ptr %8, align 8, !tbaa !12
  %34 = load i64, ptr %6, align 8, !tbaa !12
  %35 = sub i64 %34, 1
  %36 = icmp ult i64 %33, %35
  br i1 %36, label %37, label %39

37:                                               ; preds = %32
  %38 = load i64, ptr %8, align 8, !tbaa !12
  br label %42

39:                                               ; preds = %32
  %40 = load i64, ptr %6, align 8, !tbaa !12
  %41 = sub i64 %40, 1
  br label %42

42:                                               ; preds = %39, %37
  %43 = phi i64 [ %38, %37 ], [ %41, %39 ]
  store i64 %43, ptr %9, align 8, !tbaa !12
  %44 = load ptr, ptr %5, align 8, !tbaa !24
  %45 = load ptr, ptr %4, align 8, !tbaa !14
  %46 = getelementptr inbounds nuw %struct.H5R_ref_priv_t, ptr %45, i32 0, i32 0
  %47 = getelementptr inbounds nuw %struct.H5R_ref_priv_attr_t, ptr %46, i32 0, i32 1
  %48 = load ptr, ptr %47, align 8, !tbaa !18
  %49 = load i64, ptr %9, align 8, !tbaa !12
  call void @llvm.memcpy.p0.p0.i64(ptr align 1 %44, ptr align 1 %48, i64 %49, i1 false)
  %50 = load ptr, ptr %5, align 8, !tbaa !24
  %51 = load i64, ptr %9, align 8, !tbaa !12
  %52 = getelementptr inbounds nuw i8, ptr %50, i64 %51
  store i8 0, ptr %52, align 1, !tbaa !18
  call void @llvm.lifetime.end.p0(i64 8, ptr %9) #9
  br label %53

53:                                               ; preds = %42, %24
  %54 = load i64, ptr %8, align 8, !tbaa !12
  store i64 %54, ptr %7, align 8, !tbaa !12
  br label %55

55:                                               ; preds = %53, %16
  %56 = load i64, ptr %7, align 8, !tbaa !12
  call void @llvm.lifetime.end.p0(i64 8, ptr %8) #9
  call void @llvm.lifetime.end.p0(i64 8, ptr %7) #9
  ret i64 %56
}