; Function Attrs: mustprogress nofree nounwind willreturn memory(readwrite, inaccessiblemem: none) uwtable
define i64 @H5R__get_attr_name(ptr noundef readonly captures(none) %0, ptr noundef writeonly captures(address_is_null) %1, i64 noundef %2) local_unnamed_addr #9 {
  %4 = load i8, ptr @H5R_init_g, align 1, !tbaa !3, !range !7, !noundef !8
  %5 = trunc nuw i8 %4 to i1
  %6 = load i8, ptr @H5_libterm_g, align 1, !range !7
  %7 = trunc nuw i8 %6 to i1
  %8 = xor i1 %7, true
  %9 = select i1 %5, i1 true, i1 %8
  br i1 %9, label %10, label %18, !prof !9

10:                                               ; preds = %3
  %11 = getelementptr inbounds nuw i8, ptr %0, i64 24
  %12 = load ptr, ptr %11, align 8, !tbaa !10
  %13 = tail call i64 @strlen(ptr noundef nonnull dereferenceable(1) %12) #16
  %.not = icmp eq ptr %1, null
  br i1 %.not, label %18, label %14

14:                                               ; preds = %10
  %15 = add i64 %2, -1
  %16 = tail call i64 @llvm.umin.i64(i64 %13, i64 %15)
  tail call void @llvm.memcpy.p0.p0.i64(ptr nonnull align 1 %1, ptr nonnull align 1 %12, i64 %16, i1 false)
  %17 = getelementptr inbounds nuw i8, ptr %1, i64 %16
  store i8 0, ptr %17, align 1, !tbaa !10
  br label %18

18:                                               ; preds = %10, %14, %3
  %.0 = phi i64 [ -1, %3 ], [ %13, %14 ], [ %13, %10 ]
  ret i64 %.0
}